target datalayout = "e-m:e-p270:32:32-p271:32:32-p272:64:64-i64:64-i128:128-f80:128-n8:16:32:64-S128"
target triple = "x86_64-pc-linux-gnu"

%struct.VLCcode = type { i8, i16, i32 }
%struct.VLC_MULTI_ELEM = type { %union.anon.1, i8, i8 }
%union.anon.1 = type { [3 x i16] }

; Function Attrs: nounwind uwtable
define internal void @add_level(ptr noundef %0, i32 noundef %1, i32 noundef %2, i32 noundef %3, ptr noundef %4, i32 noundef %5, i32 noundef %6, i32 noundef %7, i32 noundef %8, i32 noundef %9, i32 noundef %10, ptr noundef %11, i64 %12) #0 {
  %14 = alloca %struct.VLC_MULTI_ELEM, align 2
  %15 = alloca ptr, align 8
  %16 = alloca i32, align 4
  %17 = alloca i32, align 4
  %18 = alloca i32, align 4
  %19 = alloca ptr, align 8
  %20 = alloca i32, align 4
  %21 = alloca i32, align 4
  %22 = alloca i32, align 4
  %23 = alloca i32, align 4
  %24 = alloca i32, align 4
  %25 = alloca i32, align 4
  %26 = alloca ptr, align 8
  %27 = alloca i32, align 4
  %28 = alloca i32, align 4
  %29 = alloca i32, align 4
  %30 = alloca i32, align 4
  %31 = alloca i32, align 4
  %32 = alloca i32, align 4
  %33 = alloca i32, align 4
  %34 = alloca i32, align 4
  %35 = alloca i32, align 4
  %36 = alloca i32, align 4
  %37 = alloca i32, align 4
  store i64 %12, ptr %14, align 2
  store ptr %0, ptr %15, align 8, !tbaa !57
  store i32 %1, ptr %16, align 4, !tbaa !9
  store i32 %2, ptr %17, align 4, !tbaa !9
  store i32 %3, ptr %18, align 4, !tbaa !9
  store ptr %4, ptr %19, align 8, !tbaa !12
  store i32 %5, ptr %20, align 4, !tbaa !9
  store i32 %6, ptr %21, align 4, !tbaa !9
  store i32 %7, ptr %22, align 4, !tbaa !9
  store i32 %8, ptr %23, align 4, !tbaa !9
  store i32 %9, ptr %24, align 4, !tbaa !9
  store i32 %10, ptr %25, align 4, !tbaa !9
  store ptr %11, ptr %26, align 8, !tbaa !69
  call void @llvm.lifetime.start.p0(i64 4, ptr %27) #8
  %38 = load i32, ptr %16, align 4, !tbaa !9
  %39 = ashr i32 6, %38
  store i32 %39, ptr %27, align 4, !tbaa !9
  call void @llvm.lifetime.start.p0(i64 4, ptr %28) #8
  %40 = load i32, ptr %17, align 4, !tbaa !9
  %41 = sub nsw i32 %40, 1
  store i32 %41, ptr %28, align 4, !tbaa !9
  br label %42

42:                                               ; preds = %190, %13
  %43 = load i32, ptr %28, align 4, !tbaa !9
  %44 = load i32, ptr %25, align 4, !tbaa !9
  %45 = icmp sge i32 %43, %44
  br i1 %45, label %47, label %46

46:                                               ; preds = %42
  store i32 2, ptr %29, align 4
  br label %193

47:                                               ; preds = %42
  call void @llvm.lifetime.start.p0(i64 4, ptr %30) #8
  store i32 0, ptr %30, align 4, !tbaa !9
  br label %48

48:                                               ; preds = %184, %47
  %49 = load i32, ptr %30, align 4, !tbaa !9
  %50 = icmp slt i32 %49, 2
  br i1 %50, label %52, label %51

51:                                               ; preds = %48
  store i32 5, ptr %29, align 4
  br label %187

52:                                               ; preds = %48
  call void @llvm.lifetime.start.p0(i64 4, ptr %31) #8
  call void @llvm.lifetime.start.p0(i64 4, ptr %32) #8
  call void @llvm.lifetime.start.p0(i64 4, ptr %33) #8
  %53 = load i32, ptr %30, align 4, !tbaa !9
  %54 = icmp ne i32 %53, 0
  br i1 %54, label %55, label %58

55:                                               ; preds = %52
  %56 = load i32, ptr %28, align 4, !tbaa !9
  %57 = sub nsw i32 %56, 1
  br label %60

58:                                               ; preds = %52
  %59 = load i32, ptr %28, align 4, !tbaa !9
  br label %60

60:                                               ; preds = %58, %55
  %61 = phi i32 [ %57, %55 ], [ %59, %58 ]
  store i32 %61, ptr %33, align 4, !tbaa !9
  call void @llvm.lifetime.start.p0(i64 4, ptr %34) #8
  %62 = load ptr, ptr %19, align 8, !tbaa !12
  %63 = load i32, ptr %33, align 4, !tbaa !9
  %64 = sext i32 %63 to i64
  %65 = getelementptr inbounds %struct.VLCcode, ptr %62, i64 %64
  %66 = getelementptr inbounds nuw %struct.VLCcode, ptr %65, i32 0, i32 0
  %67 = load i8, ptr %66, align 4, !tbaa !19
  %68 = zext i8 %67 to i32
  store i32 %68, ptr %34, align 4, !tbaa !9
  call void @llvm.lifetime.start.p0(i64 4, ptr %35) #8
  %69 = load ptr, ptr %19, align 8, !tbaa !12
  %70 = load i32, ptr %33, align 4, !tbaa !9
  %71 = sext i32 %70 to i64
  %72 = getelementptr inbounds %struct.VLCcode, ptr %69, i64 %71
  %73 = getelementptr inbounds nuw %struct.VLCcode, ptr %72, i32 0, i32 1
  %74 = load i16, ptr %73, align 2, !tbaa !22
  %75 = sext i16 %74 to i32
  store i32 %75, ptr %32, align 4, !tbaa !9
  %76 = load i32, ptr %34, align 4, !tbaa !9
  %77 = load i32, ptr %22, align 4, !tbaa !9
  %78 = icmp sge i32 %76, %77
  br i1 %78, label %79, label %80

79:                                               ; preds = %60
  store i32 1, ptr %29, align 4
  br label %181

80:                                               ; preds = %60
  %81 = load i32, ptr %20, align 4, !tbaa !9
  %82 = load ptr, ptr %19, align 8, !tbaa !12
  %83 = load i32, ptr %33, align 4, !tbaa !9
  %84 = sext i32 %83 to i64
  %85 = getelementptr inbounds %struct.VLCcode, ptr %82, i64 %84
  %86 = getelementptr inbounds nuw %struct.VLCcode, ptr %85, i32 0, i32 2
  %87 = load i32, ptr %86, align 4, !tbaa !21
  %88 = load i32, ptr %21, align 4, !tbaa !9
  %89 = lshr i32 %87, %88
  %90 = add i32 %81, %89
  store i32 %90, ptr %35, align 4, !tbaa !9
  %91 = load i32, ptr %22, align 4, !tbaa !9
  %92 = load i32, ptr %34, align 4, !tbaa !9
  %93 = sub nsw i32 %91, %92
  store i32 %93, ptr %31, align 4, !tbaa !9
  %94 = load i32, ptr %21, align 4, !tbaa !9
  %95 = load i32, ptr %34, align 4, !tbaa !9
  %96 = add nsw i32 %95, %94
  store i32 %96, ptr %34, align 4, !tbaa !9
  %97 = load i32, ptr %16, align 4, !tbaa !9
  %98 = icmp ne i32 %97, 0
  br i1 %98, label %99, label %106

99:                                               ; preds = %80
  %100 = load i32, ptr %32, align 4, !tbaa !9
  %101 = trunc i32 %100 to i16
  %102 = getelementptr inbounds nuw %struct.VLC_MULTI_ELEM, ptr %14, i32 0, i32 0
  %103 = load i32, ptr %23, align 4, !tbaa !9
  %104 = sext i32 %103 to i64
  %105 = getelementptr inbounds [3 x i16], ptr %102, i64 0, i64 %104
  store i16 %101, ptr %105, align 2, !tbaa !16
  br label %114

106:                                              ; preds = %80
  %107 = load i32, ptr %32, align 4, !tbaa !9
  %108 = and i32 %107, 255
  %109 = trunc i32 %108 to i8
  %110 = getelementptr inbounds nuw %struct.VLC_MULTI_ELEM, ptr %14, i32 0, i32 0
  %111 = load i32, ptr %23, align 4, !tbaa !9
  %112 = sext i32 %111 to i64
  %113 = getelementptr inbounds [6 x i8], ptr %110, i64 0, i64 %112
  store i8 %109, ptr %113, align 1, !tbaa !16
  br label %114

114:                                              ; preds = %106, %99
  %115 = load i32, ptr %23, align 4, !tbaa !9
  %116 = icmp ne i32 %115, 0
  br i1 %116, label %117, label %156

117:                                              ; preds = %114
  call void @llvm.lifetime.start.p0(i64 4, ptr %36) #8
  %118 = load i32, ptr %35, align 4, !tbaa !9
  %119 = load i32, ptr %18, align 4, !tbaa !9
  %120 = sub nsw i32 32, %119
  %121 = lshr i32 %118, %120
  store i32 %121, ptr %36, align 4, !tbaa !9
  call void @llvm.lifetime.start.p0(i64 4, ptr %37) #8
  %122 = load i32, ptr %36, align 4, !tbaa !9
  %123 = load i32, ptr %18, align 4, !tbaa !9
  %124 = load i32, ptr %34, align 4, !tbaa !9
  %125 = sub nsw i32 %123, %124
  %126 = shl i32 1, %125
  %127 = add i32 %122, %126
  store i32 %127, ptr %37, align 4, !tbaa !9
  %128 = load i32, ptr %34, align 4, !tbaa !9
  %129 = trunc i32 %128 to i8
  %130 = getelementptr inbounds nuw %struct.VLC_MULTI_ELEM, ptr %14, i32 0, i32 1
  store i8 %129, ptr %130, align 2, !tbaa !61
  %131 = load i32, ptr %23, align 4, !tbaa !9
  %132 = add nsw i32 %131, 1
  %133 = trunc i32 %132 to i8
  %134 = getelementptr inbounds nuw %struct.VLC_MULTI_ELEM, ptr %14, i32 0, i32 2
  store i8 %133, ptr %134, align 1, !tbaa !63
  br label %135

135:                                              ; preds = %145, %117
  %136 = load i32, ptr %36, align 4, !tbaa !9
  %137 = load i32, ptr %37, align 4, !tbaa !9
  %138 = icmp ult i32 %136, %137
  br i1 %138, label %139, label %148

139:                                              ; preds = %135
  %140 = load i64, ptr %14, align 2, !tbaa !16
  %141 = load ptr, ptr %15, align 8, !tbaa !57
  %142 = load i32, ptr %36, align 4, !tbaa !9
  %143 = zext i32 %142 to i64
  %144 = getelementptr inbounds nuw %struct.VLC_MULTI_ELEM, ptr %141, i64 %143
  store i64 %140, ptr %144, align 8, !tbaa !16
  br label %145

145:                                              ; preds = %139
  %146 = load i32, ptr %36, align 4, !tbaa !9
  %147 = add i32 %146, 1
  store i32 %147, ptr %36, align 4, !tbaa !9
  br label %135, !llvm.loop !71

148:                                              ; preds = %135
  %149 = load ptr, ptr %26, align 8, !tbaa !69
  %150 = load i32, ptr %23, align 4, !tbaa !9
  %151 = sub nsw i32 %150, 1
  %152 = sext i32 %151 to i64
  %153 = getelementptr inbounds i32, ptr %149, i64 %152
  %154 = load i32, ptr %153, align 4, !tbaa !9
  %155 = add i32 %154, 1
  store i32 %155, ptr %153, align 4, !tbaa !9
  call void @llvm.lifetime.end.p0(i64 4, ptr %37) #8
  call void @llvm.lifetime.end.p0(i64 4, ptr %36) #8
  br label %156

156:                                              ; preds = %148, %114
  %157 = load i32, ptr %23, align 4, !tbaa !9
  %158 = add nsw i32 %157, 1
  %159 = load i32, ptr %27, align 4, !tbaa !9
  %160 = icmp slt i32 %158, %159
  br i1 %160, label %161, label %180

161:                                              ; preds = %156
  %162 = load i32, ptr %31, align 4, !tbaa !9
  %163 = load i32, ptr %24, align 4, !tbaa !9
  %164 = icmp sge i32 %162, %163
  br i1 %164, label %165, label %180

165:                                              ; preds = %161
  %166 = load ptr, ptr %15, align 8, !tbaa !57
  %167 = load i32, ptr %16, align 4, !tbaa !9
  %168 = load i32, ptr %17, align 4, !tbaa !9
  %169 = load i32, ptr %18, align 4, !tbaa !9
  %170 = load ptr, ptr %19, align 8, !tbaa !12
  %171 = load i32, ptr %35, align 4, !tbaa !9
  %172 = load i32, ptr %34, align 4, !tbaa !9
  %173 = load i32, ptr %31, align 4, !tbaa !9
  %174 = load i32, ptr %23, align 4, !tbaa !9
  %175 = add nsw i32 %174, 1
  %176 = load i32, ptr %24, align 4, !tbaa !9
  %177 = load i32, ptr %25, align 4, !tbaa !9
  %178 = load ptr, ptr %26, align 8, !tbaa !69
  %179 = load i64, ptr %14, align 2
  call void @add_level(ptr noundef %166, i32 noundef %167, i32 noundef %168, i32 noundef %169, ptr noundef %170, i32 noundef %171, i32 noundef %172, i32 noundef %173, i32 noundef %175, i32 noundef %176, i32 noundef %177, ptr noundef %178, i64 %179)
  br label %180

180:                                              ; preds = %165, %161, %156
  store i32 0, ptr %29, align 4
  br label %181

181:                                              ; preds = %180, %79
  call void @llvm.lifetime.end.p0(i64 4, ptr %35) #8
  call void @llvm.lifetime.end.p0(i64 4, ptr %34) #8
  call void @llvm.lifetime.end.p0(i64 4, ptr %33) #8
  call void @llvm.lifetime.end.p0(i64 4, ptr %32) #8
  call void @llvm.lifetime.end.p0(i64 4, ptr %31) #8
  %182 = load i32, ptr %29, align 4
  switch i32 %182, label %187 [
    i32 0, label %183
  ]

183:                                              ; preds = %181
  br label %184

184:                                              ; preds = %183
  %185 = load i32, ptr %30, align 4, !tbaa !9
  %186 = add nsw i32 %185, 1
  store i32 %186, ptr %30, align 4, !tbaa !9
  br label %48, !llvm.loop !72

187:                                              ; preds = %181, %51
  call void @llvm.lifetime.end.p0(i64 4, ptr %30) #8
  %188 = load i32, ptr %29, align 4
  switch i32 %188, label %193 [
    i32 5, label %189
  ]

189:                                              ; preds = %187
  br label %190

190:                                              ; preds = %189
  %191 = load i32, ptr %28, align 4, !tbaa !9
  %192 = add nsw i32 %191, -1
  store i32 %192, ptr %28, align 4, !tbaa !9
  br label %42, !llvm.loop !73

193:                                              ; preds = %187, %46
  call void @llvm.lifetime.end.p0(i64 4, ptr %28) #8
  %194 = load i32, ptr %29, align 4
  switch i32 %194, label %196 [
    i32 2, label %195
  ]

195:                                              ; preds = %193
  store i32 0, ptr %29, align 4
  br label %196

196:                                              ; preds = %195, %193
  call void @llvm.lifetime.end.p0(i64 4, ptr %27) #8
  %197 = load i32, ptr %29, align 4
  switch i32 %197, label %199 [
    i32 0, label %198
    i32 1, label %198
  ]

198:                                              ; preds = %196, %196
  ret void

199:                                              ; preds = %196
  unreachable
}