; Function Attrs: nofree nosync nounwind memory(argmem: readwrite) uwtable
define internal fastcc void @add_level(ptr noundef writeonly captures(none) %0, i32 noundef range(i32 0, 2) %1, i32 noundef %2, i32 noundef range(i32 0, -2147483648) %3, ptr noundef readonly captures(none) %4, i32 noundef %5, i32 noundef %6, i32 noundef range(i32 0, -2147483648) %7, i32 noundef range(i32 0, 6) %8, i32 noundef range(i32 0, 33) %9, i32 noundef %10, ptr noundef nonnull captures(none) %11, i64 %12) unnamed_addr #6 {
  %14 = alloca %struct.VLC_MULTI_ELEM, align 8
  store i64 %12, ptr %14, align 8
  %.082 = add nsw i32 %2, -1
  %.not.not83 = icmp sgt i32 %2, %10
  br i1 %.not.not83, label %.preheader.lr.ph, label %.critedge

.preheader.lr.ph:                                 ; preds = %13
  %15 = lshr exact i32 6, %1
  %invariant.gep = getelementptr i8, ptr %11, i64 -4
  %.not75 = icmp eq i32 %1, 0
  %16 = zext nneg i32 %8 to i64
  %17 = getelementptr inbounds nuw [3 x i16], ptr %14, i64 0, i64 %16
  %18 = getelementptr inbounds nuw [6 x i8], ptr %14, i64 0, i64 %16
  %.not76 = icmp eq i32 %8, 0
  %19 = sub nsw i32 32, %3
  %20 = getelementptr inbounds nuw i8, ptr %14, i64 6
  %21 = trunc nuw nsw i32 %8 to i8
  %22 = add nuw nsw i8 %21, 1
  %23 = getelementptr inbounds nuw i8, ptr %14, i64 7
  %gep = getelementptr i32, ptr %invariant.gep, i64 %16
  %24 = add nuw nsw i32 %8, 1
  %25 = icmp samesign uge i32 %24, %15
  %.fr = freeze i1 %25
  br i1 %.not76, label %.preheader.lr.ph.split.us, label %.preheader

.preheader.lr.ph.split.us:                        ; preds = %.preheader.lr.ph
  br i1 %.fr, label %.preheader.lr.ph.split.us.split.us, label %.preheader.us

.preheader.lr.ph.split.us.split.us:               ; preds = %.preheader.lr.ph.split.us
  br i1 %.not75, label %.preheader.us.us.us, label %.preheader.us.us

.preheader.us.us.us:                              ; preds = %.preheader.lr.ph.split.us.split.us, %.critedge78.loopexit.split.us.us.split.us.split.us.us.us
  %.085.us.us.us = phi i32 [ %.0.us.us.us, %.critedge78.loopexit.split.us.us.split.us.split.us.us.us ], [ %.082, %.preheader.lr.ph.split.us.split.us ]
  %.0.in84.us.us.us = phi i32 [ %.085.us.us.us, %.critedge78.loopexit.split.us.us.split.us.split.us.us.us ], [ %2, %.preheader.lr.ph.split.us.split.us ]
  %26 = add nsw i32 %.0.in84.us.us.us, -2
  br label %27

27:                                               ; preds = %33, %.preheader.us.us.us
  %.not.us.us.us.us.us.us = phi i1 [ true, %.preheader.us.us.us ], [ false, %33 ]
  %28 = select i1 %.not.us.us.us.us.us.us, i32 %.085.us.us.us, i32 %26
  %29 = sext i32 %28 to i64
  %30 = getelementptr inbounds %struct.VLCcode, ptr %4, i64 %29
  %31 = load i8, ptr %30, align 4, !tbaa !18
  %32 = zext i8 %31 to i32
  %.not74.us.us.us.us.us.us = icmp samesign ugt i32 %7, %32
  br i1 %.not74.us.us.us.us.us.us, label %33, label %.critedge

33:                                               ; preds = %27
  br i1 %.not.us.us.us.us.us.us, label %27, label %.critedge78.loopexit.split.us.us.split.us.split.us.us.us, !llvm.loop !50

.critedge78.loopexit.split.us.us.split.us.split.us.us.us: ; preds = %33
  %.0.us.us.us = add nsw i32 %.085.us.us.us, -1
  %.not.not.us.us.us = icmp sgt i32 %.085.us.us.us, %10
  br i1 %.not.not.us.us.us, label %.preheader.us.us.us, label %.critedge, !llvm.loop !51

.preheader.us.us:                                 ; preds = %.preheader.lr.ph.split.us.split.us, %.critedge78.loopexit.split.us.us.split.us.split.us89
  %.085.us.us = phi i32 [ %.0.us.us, %.critedge78.loopexit.split.us.us.split.us.split.us89 ], [ %.082, %.preheader.lr.ph.split.us.split.us ]
  %.0.in84.us.us = phi i32 [ %.085.us.us, %.critedge78.loopexit.split.us.us.split.us.split.us89 ], [ %2, %.preheader.lr.ph.split.us.split.us ]
  %34 = add nsw i32 %.0.in84.us.us, -2
  br label %35

35:                                               ; preds = %.preheader.us.us, %41
  %.not.us.us.us.us87 = phi i1 [ true, %.preheader.us.us ], [ false, %41 ]
  %36 = select i1 %.not.us.us.us.us87, i32 %.085.us.us, i32 %34
  %37 = sext i32 %36 to i64
  %38 = getelementptr inbounds %struct.VLCcode, ptr %4, i64 %37
  %39 = load i8, ptr %38, align 4, !tbaa !18
  %40 = zext i8 %39 to i32
  %.not74.us.us.us.us88 = icmp samesign ugt i32 %7, %40
  br i1 %.not74.us.us.us.us88, label %41, label %.critedge

41:                                               ; preds = %35
  br i1 %.not.us.us.us.us87, label %35, label %.critedge78.loopexit.split.us.us.split.us.split.us89, !llvm.loop !50

.critedge78.loopexit.split.us.us.split.us.split.us89: ; preds = %41
  %.0.us.us = add nsw i32 %.085.us.us, -1
  %.not.not.us.us = icmp sgt i32 %.085.us.us, %10
  br i1 %.not.not.us.us, label %.preheader.us.us, label %.critedge, !llvm.loop !51

.preheader.us:                                    ; preds = %.preheader.lr.ph.split.us, %.critedge78.loopexit.split.us.us.split
  %.085.us = phi i32 [ %.0.us, %.critedge78.loopexit.split.us.us.split ], [ %.082, %.preheader.lr.ph.split.us ]
  %.0.in84.us = phi i32 [ %.085.us, %.critedge78.loopexit.split.us.us.split ], [ %2, %.preheader.lr.ph.split.us ]
  %42 = add nsw i32 %.0.in84.us, -2
  br label %43

43:                                               ; preds = %64, %.preheader.us
  %.not.us.us = phi i1 [ true, %.preheader.us ], [ false, %64 ]
  %44 = select i1 %.not.us.us, i32 %.085.us, i32 %42
  %45 = sext i32 %44 to i64
  %46 = getelementptr inbounds %struct.VLCcode, ptr %4, i64 %45
  %47 = load i8, ptr %46, align 4, !tbaa !18
  %48 = zext i8 %47 to i32
  %49 = getelementptr inbounds nuw i8, ptr %46, i64 2
  %50 = load i16, ptr %49, align 2, !tbaa !21
  %.not74.us.us = icmp samesign ugt i32 %7, %48
  br i1 %.not74.us.us, label %51, label %.critedge

51:                                               ; preds = %43
  %52 = getelementptr inbounds nuw i8, ptr %46, i64 4
  %53 = load i32, ptr %52, align 4, !tbaa !20
  %54 = lshr i32 %53, %6
  %55 = add i32 %54, %5
  %56 = sub nuw nsw i32 %7, %48
  %57 = add nsw i32 %6, %48
  br i1 %.not75, label %59, label %58

58:                                               ; preds = %51
  store i16 %50, ptr %17, align 2, !tbaa !14
  br label %61

59:                                               ; preds = %51
  %60 = trunc i16 %50 to i8
  store i8 %60, ptr %18, align 1, !tbaa !14
  br label %61

61:                                               ; preds = %59, %58
  %.not77.us.us = icmp samesign ult i32 %56, %9
  br i1 %.not77.us.us, label %64, label %62

62:                                               ; preds = %61
  %63 = load i64, ptr %14, align 8
  tail call fastcc void @add_level(ptr noundef %0, i32 noundef %1, i32 noundef %2, i32 noundef %3, ptr noundef nonnull %4, i32 noundef %55, i32 noundef %57, i32 noundef %56, i32 noundef %24, i32 noundef %9, i32 noundef %10, ptr noundef %11, i64 %63)
  br label %64

64:                                               ; preds = %62, %61
  br i1 %.not.us.us, label %43, label %.critedge78.loopexit.split.us.us.split, !llvm.loop !50

.critedge78.loopexit.split.us.us.split:           ; preds = %64
  %.0.us = add nsw i32 %.085.us, -1
  %.not.not.us = icmp sgt i32 %.085.us, %10
  br i1 %.not.not.us, label %.preheader.us, label %.critedge, !llvm.loop !51

.critedge78.loopexit.split:                       ; preds = %99
  %.0 = add nsw i32 %.085, -1
  %.not.not = icmp sgt i32 %.085, %10
  br i1 %.not.not, label %.preheader, label %.critedge, !llvm.loop !51

.preheader:                                       ; preds = %.preheader.lr.ph, %.critedge78.loopexit.split
  %.085 = phi i32 [ %.0, %.critedge78.loopexit.split ], [ %.082, %.preheader.lr.ph ]
  %.0.in84 = phi i32 [ %.085, %.critedge78.loopexit.split ], [ %2, %.preheader.lr.ph ]
  %65 = add nsw i32 %.0.in84, -2
  br label %66

66:                                               ; preds = %.preheader, %99
  %.not = phi i1 [ true, %.preheader ], [ false, %99 ]
  %67 = select i1 %.not, i32 %.085, i32 %65
  %68 = sext i32 %67 to i64
  %69 = getelementptr inbounds %struct.VLCcode, ptr %4, i64 %68
  %70 = load i8, ptr %69, align 4, !tbaa !18
  %71 = zext i8 %70 to i32
  %72 = getelementptr inbounds nuw i8, ptr %69, i64 2
  %73 = load i16, ptr %72, align 2, !tbaa !21
  %.not74 = icmp samesign ugt i32 %7, %71
  br i1 %.not74, label %74, label %.critedge

74:                                               ; preds = %66
  %75 = getelementptr inbounds nuw i8, ptr %69, i64 4
  %76 = load i32, ptr %75, align 4, !tbaa !20
  %77 = lshr i32 %76, %6
  %78 = add i32 %77, %5
  %79 = sub nuw nsw i32 %7, %71
  %80 = add nsw i32 %6, %71
  br i1 %.not75, label %82, label %81

81:                                               ; preds = %74
  store i16 %73, ptr %17, align 2, !tbaa !14
  br label %84

82:                                               ; preds = %74
  %83 = trunc i16 %73 to i8
  store i8 %83, ptr %18, align 1, !tbaa !14
  br label %84

84:                                               ; preds = %82, %81
  %85 = lshr i32 %78, %19
  %86 = sub nsw i32 %3, %80
  %87 = shl nuw i32 1, %86
  %88 = add i32 %85, %87
  %89 = trunc i32 %80 to i8
  store i8 %89, ptr %20, align 2, !tbaa !42
  store i8 %22, ptr %23, align 1, !tbaa !44
  %90 = icmp ult i32 %85, %88
  br i1 %90, label %.lr.ph, label %._crit_edge

.lr.ph:                                           ; preds = %84
  %91 = load i64, ptr %14, align 8, !tbaa !14
  %92 = zext i32 %85 to i64
  %wide.trip.count = zext i32 %88 to i64
  br label %93

93:                                               ; preds = %.lr.ph, %93
  %indvars.iv = phi i64 [ %92, %.lr.ph ], [ %indvars.iv.next, %93 ]
  %94 = getelementptr inbounds nuw %struct.VLC_MULTI_ELEM, ptr %0, i64 %indvars.iv
  store i64 %91, ptr %94, align 8, !tbaa !14
  %indvars.iv.next = add nuw nsw i64 %indvars.iv, 1
  %exitcond.not = icmp eq i64 %indvars.iv.next, %wide.trip.count
  br i1 %exitcond.not, label %._crit_edge, label %93, !llvm.loop !52

._crit_edge:                                      ; preds = %93, %84
  %95 = load i32, ptr %gep, align 4, !tbaa !17
  %96 = add i32 %95, 1
  store i32 %96, ptr %gep, align 4, !tbaa !17
  %.not77 = icmp samesign ult i32 %79, %9
  %or.cond = select i1 %.fr, i1 true, i1 %.not77
  br i1 %or.cond, label %99, label %97

97:                                               ; preds = %._crit_edge
  %98 = load i64, ptr %14, align 8
  tail call fastcc void @add_level(ptr noundef %0, i32 noundef %1, i32 noundef %2, i32 noundef %3, ptr noundef nonnull %4, i32 noundef %78, i32 noundef %80, i32 noundef %79, i32 noundef %24, i32 noundef %9, i32 noundef %10, ptr noundef %11, i64 %98)
  br label %99

99:                                               ; preds = %97, %._crit_edge
  br i1 %.not, label %66, label %.critedge78.loopexit.split, !llvm.loop !50

.critedge:                                        ; preds = %.critedge78.loopexit.split, %66, %.critedge78.loopexit.split.us.us.split, %43, %.critedge78.loopexit.split.us.us.split.us.split.us89, %35, %.critedge78.loopexit.split.us.us.split.us.split.us.us.us, %27, %13
  ret void
}